#include <math.h>
#include <stdio.h>
#include <stdlib.h>
#include <string.h>



int main()
{
		int a,n,i=1,sum=0;
	scanf("%d",&n);
	while (i<=n){
		if(i%7==0||i/10==7||i-i/10*10==7){
		sum=sum;
		i++;
		}
		else{
			sum+=i*i;
			i++;
				
		}
	}
    
	printf("%d",sum);
	return 0;
	}